target datalayout = "e-m:e-p270:32:32-p271:32:32-p272:64:64-i64:64-i128:128-f80:128-n8:16:32:64-S128"
target triple = "x86_64-pc-linux-gnu"

%struct.ident_t = type { i32, i32, i32, i32, ptr }
%"struct.faiss::AlignedTable.25" = type { %"struct.faiss::AlignedTableTightAlloc.26", i64 }
%"struct.faiss::AlignedTableTightAlloc.26" = type { ptr, i64 }

@1 = private unnamed_addr constant %struct.ident_t { i32 0, i32 514, i32 0, i32 22, ptr @0 }, align 8

; Function Attrs: mustprogress nounwind uwtable
define linkonce_odr noundef ptr @_ZN5faiss22AlignedTableTightAllocIfLi32EE3getEv(ptr noundef nonnull align 8 dereferenceable(16) %0) #0 comdat align 2 {
  %2 = alloca ptr, align 8
  store ptr %0, ptr %2, align 8, !tbaa !259
  %3 = load ptr, ptr %2, align 8
  %4 = getelementptr inbounds nuw %"struct.faiss::AlignedTableTightAlloc.26", ptr %3, i32 0, i32 0
  %5 = load ptr, ptr %4, align 8, !tbaa !261
  ret ptr %5
}

; Function Attrs: noinline noreturn nounwind uwtable
define linkonce_odr hidden void @__clang_call_terminate(ptr noundef %0) #8 comdat {
  %2 = call ptr @__cxa_begin_catch(ptr %0) #18
  call void @_ZSt9terminatev() #26
  unreachable
}

; Function Attrs: mustprogress nounwind uwtable
define linkonce_odr noundef ptr @_ZN5faiss12AlignedTableIfLi32EE4dataEv(ptr noundef nonnull align 8 dereferenceable(24) %0) #0 comdat align 2 {
  %2 = alloca ptr, align 8
  store ptr %0, ptr %2, align 8, !tbaa !98
  %3 = load ptr, ptr %2, align 8
  %4 = getelementptr inbounds nuw %"struct.faiss::AlignedTable.25", ptr %3, i32 0, i32 0
  %5 = call noundef ptr @_ZN5faiss22AlignedTableTightAllocIfLi32EE3getEv(ptr noundef nonnull align 8 dereferenceable(16) %4)
  ret ptr %5
}

; Function Attrs: noinline norecurse nounwind uwtable
define internal void @_ZNK5faiss33IndexIVFAdditiveQuantizerFastScan11compute_LUTEmPKfRKNS_16IndexIVFFastScan15CoarseQuantizedERNS_12AlignedTableIfLi32EEES9_.omp_outlined.21(ptr noalias noundef %0, ptr noalias noundef %1, ptr noundef nonnull align 8 dereferenceable(8) %2, ptr noundef nonnull align 8 dereferenceable(24) %3, ptr noundef nonnull align 8 dereferenceable(8) %4, ptr noundef nonnull align 8 dereferenceable(8) %5, ptr noundef nonnull align 8 dereferenceable(8) %6, ptr noundef nonnull align 8 dereferenceable(8) %7) #22 personality ptr @__gxx_personality_v0 {
  %9 = alloca ptr, align 8
  %10 = alloca ptr, align 8
  %11 = alloca ptr, align 8
  %12 = alloca ptr, align 8
  %13 = alloca ptr, align 8
  %14 = alloca ptr, align 8
  %15 = alloca ptr, align 8
  %16 = alloca ptr, align 8
  %17 = alloca ptr, align 8
  %18 = alloca i64, align 8
  %19 = alloca i64, align 8
  %20 = alloca i64, align 8
  %21 = alloca i64, align 8
  %22 = alloca i64, align 8
  %23 = alloca i64, align 8
  %24 = alloca i64, align 8
  %25 = alloca i32, align 4
  %26 = alloca i64, align 8
  %27 = alloca ptr, align 8
  store ptr %0, ptr %9, align 8, !tbaa !228
  store ptr %1, ptr %10, align 8, !tbaa !228
  store ptr %2, ptr %11, align 8, !tbaa !13
  store ptr %3, ptr %12, align 8, !tbaa !98
  store ptr %4, ptr %13, align 8, !tbaa !13
  store ptr %5, ptr %14, align 8, !tbaa !13
  store ptr %6, ptr %15, align 8, !tbaa !204
  store ptr %7, ptr %16, align 8, !tbaa !13
  %28 = load ptr, ptr %11, align 8, !tbaa !13
  %29 = load ptr, ptr %12, align 8, !tbaa !98
  %30 = load ptr, ptr %13, align 8, !tbaa !13
  %31 = load ptr, ptr %14, align 8, !tbaa !13
  %32 = load ptr, ptr %15, align 8, !tbaa !204
  %33 = load ptr, ptr %16, align 8, !tbaa !13
  store ptr %29, ptr %17, align 8
  call void @llvm.lifetime.start.p0(i64 8, ptr %18) #18
  call void @llvm.lifetime.start.p0(i64 8, ptr %19) #18
  %34 = load i64, ptr %28, align 8, !tbaa !9
  store i64 %34, ptr %19, align 8, !tbaa !9
  call void @llvm.lifetime.start.p0(i64 8, ptr %20) #18
  %35 = load i64, ptr %19, align 8, !tbaa !9
  %36 = sub i64 %35, 0
  %37 = udiv i64 %36, 1
  %38 = sub i64 %37, 1
  store i64 %38, ptr %20, align 8, !tbaa !9
  call void @llvm.lifetime.start.p0(i64 8, ptr %21) #18
  store i64 0, ptr %21, align 8, !tbaa !9
  call void @llvm.lifetime.end.p0(i64 8, ptr %21) #18
  %39 = load i64, ptr %19, align 8, !tbaa !9
  %40 = icmp ult i64 0, %39
  br i1 %40, label %41, label %86

41:                                               ; preds = %8
  call void @llvm.lifetime.start.p0(i64 8, ptr %22) #18
  store i64 0, ptr %22, align 8, !tbaa !9
  call void @llvm.lifetime.start.p0(i64 8, ptr %23) #18
  %42 = load i64, ptr %20, align 8, !tbaa !9
  store i64 %42, ptr %23, align 8, !tbaa !9
  call void @llvm.lifetime.start.p0(i64 8, ptr %24) #18
  store i64 1, ptr %24, align 8, !tbaa !9
  call void @llvm.lifetime.start.p0(i64 4, ptr %25) #18
  store i32 0, ptr %25, align 4, !tbaa !17
  call void @llvm.lifetime.start.p0(i64 8, ptr %26) #18
  %43 = load ptr, ptr %9, align 8
  %44 = load i32, ptr %43, align 4, !tbaa !17
  call void @__kmpc_for_static_init_8u(ptr @1, i32 %44, i32 34, ptr %25, ptr %22, ptr %23, ptr %24, i64 1, i64 1)
  %45 = load i64, ptr %23, align 8, !tbaa !9
  %46 = load i64, ptr %20, align 8, !tbaa !9
  %47 = icmp ugt i64 %45, %46
  br i1 %47, label %48, label %50

48:                                               ; preds = %41
  %49 = load i64, ptr %20, align 8, !tbaa !9
  br label %52

50:                                               ; preds = %41
  %51 = load i64, ptr %23, align 8, !tbaa !9
  br label %52

52:                                               ; preds = %50, %48
  %53 = phi i64 [ %49, %48 ], [ %51, %50 ]
  store i64 %53, ptr %23, align 8, !tbaa !9
  %54 = load i64, ptr %22, align 8, !tbaa !9
  store i64 %54, ptr %18, align 8, !tbaa !9
  br label %55

55:                                               ; preds = %79, %52
  %56 = load i64, ptr %18, align 8, !tbaa !9
  %57 = load i64, ptr %23, align 8, !tbaa !9
  %58 = add i64 %57, 1
  %59 = icmp ult i64 %56, %58
  br i1 %59, label %61, label %60

60:                                               ; preds = %55
  br label %82

61:                                               ; preds = %55
  %62 = load i64, ptr %18, align 8, !tbaa !9
  %63 = mul i64 %62, 1
  %64 = add i64 0, %63
  store i64 %64, ptr %26, align 8, !tbaa !9
  call void @llvm.lifetime.start.p0(i64 8, ptr %27) #18
  %65 = load ptr, ptr %17, align 8, !tbaa !98
  %66 = invoke noundef ptr @_ZN5faiss12AlignedTableIfLi32EE4dataEv(ptr noundef nonnull align 8 dereferenceable(24) %65)
          to label %67 unwind label %87

67:                                               ; preds = %61
  %68 = load i64, ptr %26, align 8, !tbaa !9
  %69 = load i64, ptr %30, align 8, !tbaa !9
  %70 = mul i64 %68, %69
  %71 = getelementptr inbounds nuw float, ptr %66, i64 %70
  %72 = load i64, ptr %31, align 8, !tbaa !9
  %73 = getelementptr inbounds nuw float, ptr %71, i64 %72
  store ptr %73, ptr %27, align 8, !tbaa !11
  %74 = load ptr, ptr %27, align 8, !tbaa !11
  %75 = load ptr, ptr %32, align 8, !tbaa !11
  %76 = load i64, ptr %33, align 8, !tbaa !9
  %77 = mul i64 %76, 4
  call void @llvm.memcpy.p0.p0.i64(ptr align 4 %74, ptr align 4 %75, i64 %77, i1 false)
  call void @llvm.lifetime.end.p0(i64 8, ptr %27) #18
  br label %78

78:                                               ; preds = %67
  br label %79

79:                                               ; preds = %78
  %80 = load i64, ptr %18, align 8, !tbaa !9
  %81 = add i64 %80, 1
  store i64 %81, ptr %18, align 8, !tbaa !9
  br label %55

82:                                               ; preds = %60
  br label %83

83:                                               ; preds = %82
  %84 = load ptr, ptr %9, align 8
  %85 = load i32, ptr %84, align 4, !tbaa !17
  call void @__kmpc_for_static_fini(ptr @1, i32 %85)
  call void @llvm.lifetime.end.p0(i64 8, ptr %26) #18
  call void @llvm.lifetime.end.p0(i64 4, ptr %25) #18
  call void @llvm.lifetime.end.p0(i64 8, ptr %24) #18
  call void @llvm.lifetime.end.p0(i64 8, ptr %23) #18
  call void @llvm.lifetime.end.p0(i64 8, ptr %22) #18
  br label %86

86:                                               ; preds = %83, %8
  call void @llvm.lifetime.end.p0(i64 8, ptr %20) #18
  call void @llvm.lifetime.end.p0(i64 8, ptr %19) #18
  call void @llvm.lifetime.end.p0(i64 8, ptr %18) #18
  ret void

87:                                               ; preds = %61
  %88 = landingpad { ptr, i32 }
          catch ptr null
  %89 = extractvalue { ptr, i32 } %88, 0
  call void @__clang_call_terminate(ptr %89) #26
  unreachable
}