; Function Attrs: noinline norecurse nounwind uwtable
define internal void @_ZNK5faiss33IndexIVFAdditiveQuantizerFastScan11compute_LUTEmPKfRKNS_16IndexIVFFastScan15CoarseQuantizedERNS_12AlignedTableIfLi32EEES9_.omp_outlined.21(ptr noalias noundef readonly captures(none) %0, ptr noalias readnone captures(none) %1, ptr noundef nonnull readonly align 8 captures(none) dereferenceable(8) %2, ptr noundef nonnull readonly align 8 captures(none) dereferenceable(24) %3, ptr noundef nonnull readonly align 8 captures(none) dereferenceable(8) %4, ptr noundef nonnull readonly align 8 captures(none) dereferenceable(8) %5, ptr noundef nonnull readonly align 8 captures(none) dereferenceable(8) %6, ptr noundef nonnull readonly align 8 captures(none) dereferenceable(8) %7) #25 personality ptr @__gxx_personality_v0 {
  %9 = alloca i64, align 8
  %10 = alloca i64, align 8
  %11 = alloca i64, align 8
  %12 = alloca i32, align 4
  %13 = load i64, ptr %2, align 8, !tbaa !56
  %.not = icmp eq i64 %13, 0
  br i1 %.not, label %33, label %14

14:                                               ; preds = %8
  %15 = add i64 %13, -1
  call void @llvm.lifetime.start.p0(i64 8, ptr nonnull %9) #21
  store i64 0, ptr %9, align 8, !tbaa !56
  call void @llvm.lifetime.start.p0(i64 8, ptr nonnull %10) #21
  store i64 %15, ptr %10, align 8, !tbaa !56
  call void @llvm.lifetime.start.p0(i64 8, ptr nonnull %11) #21
  store i64 1, ptr %11, align 8, !tbaa !56
  call void @llvm.lifetime.start.p0(i64 4, ptr nonnull %12) #21
  store i32 0, ptr %12, align 4, !tbaa !70
  %16 = load i32, ptr %0, align 4, !tbaa !70
  call void @__kmpc_for_static_init_8u(ptr nonnull @1, i32 %16, i32 34, ptr nonnull %12, ptr nonnull %9, ptr nonnull %10, ptr nonnull %11, i64 1, i64 1)
  %17 = load i64, ptr %10, align 8, !tbaa !56
  %18 = call i64 @llvm.umin.i64(i64 %17, i64 %15)
  store i64 %18, ptr %10, align 8, !tbaa !56
  %19 = load i64, ptr %9, align 8, !tbaa !56
  %.not19 = icmp ugt i64 %19, %18
  br i1 %.not19, label %._crit_edge, label %.lr.ph

.lr.ph:                                           ; preds = %14, %.lr.ph
  %.018 = phi i64 [ %29, %.lr.ph ], [ %19, %14 ]
  %20 = load ptr, ptr %3, align 8, !tbaa !102
  %21 = load i64, ptr %4, align 8, !tbaa !56
  %22 = mul i64 %21, %.018
  %23 = getelementptr inbounds nuw float, ptr %20, i64 %22
  %24 = load i64, ptr %5, align 8, !tbaa !56
  %25 = getelementptr inbounds nuw float, ptr %23, i64 %24
  %26 = load ptr, ptr %6, align 8, !tbaa !57
  %27 = load i64, ptr %7, align 8, !tbaa !56
  %28 = shl i64 %27, 2
  call void @llvm.memcpy.p0.p0.i64(ptr align 4 %25, ptr align 4 %26, i64 %28, i1 false)
  %29 = add nuw i64 %.018, 1
  %30 = load i64, ptr %10, align 8, !tbaa !56
  %31 = add i64 %30, 1
  %32 = icmp ult i64 %29, %31
  br i1 %32, label %.lr.ph, label %._crit_edge

._crit_edge:                                      ; preds = %.lr.ph, %14
  call void @__kmpc_for_static_fini(ptr nonnull @1, i32 %16)
  call void @llvm.lifetime.end.p0(i64 4, ptr nonnull %12) #21
  call void @llvm.lifetime.end.p0(i64 8, ptr nonnull %11) #21
  call void @llvm.lifetime.end.p0(i64 8, ptr nonnull %10) #21
  call void @llvm.lifetime.end.p0(i64 8, ptr nonnull %9) #21
  br label %33

33:                                               ; preds = %._crit_edge, %8
  ret void
}